; ModuleID = 'source-C-CXX/51/4906.cpp'
source_filename = "source-C-CXX/51/4906.cpp"
target datalayout = "e-m:e-p270:32:32-p271:32:32-p272:64:64-i64:64-f80:128-n8:16:32:64-S128"
target triple = "x86_64-pc-linux-gnu"

%"class.std::ios_base::Init" = type { i8 }
%"class.std::basic_istream" = type { i32 (...)**, i64, %"class.std::basic_ios" }
%"class.std::basic_ios" = type { %"class.std::ios_base", %"class.std::basic_ostream"*, i8, i8, %"class.std::basic_streambuf"*, %"class.std::ctype"*, %"class.std::num_put"*, %"class.std::num_get"* }
%"class.std::ios_base" = type { i32 (...)**, i64, i64, i32, i32, i32, %"struct.std::ios_base::_Callback_list"*, %"struct.std::ios_base::_Words", [8 x %"struct.std::ios_base::_Words"], i32, %"struct.std::ios_base::_Words"*, %"class.std::locale" }
%"struct.std::ios_base::_Callback_list" = type { %"struct.std::ios_base::_Callback_list"*, void (i32, %"class.std::ios_base"*, i32)*, i32, i32 }
%"struct.std::ios_base::_Words" = type { i8*, i64 }
%"class.std::locale" = type { %"class.std::locale::_Impl"* }
%"class.std::locale::_Impl" = type { i32, %"class.std::locale::facet"**, i64, %"class.std::locale::facet"**, i8** }
%"class.std::locale::facet" = type <{ i32 (...)**, i32, [4 x i8] }>
%"class.std::basic_ostream" = type { i32 (...)**, %"class.std::basic_ios" }
%"class.std::basic_streambuf" = type { i32 (...)**, i8*, i8*, i8*, i8*, i8*, i8*, %"class.std::locale" }
%"class.std::ctype" = type <{ %"class.std::locale::facet.base", [4 x i8], %struct.__locale_struct*, i8, [7 x i8], i32*, i32*, i16*, i8, [256 x i8], [256 x i8], i8, [6 x i8] }>
%"class.std::locale::facet.base" = type <{ i32 (...)**, i32 }>
%struct.__locale_struct = type { [13 x %struct.__locale_data*], i16*, i32*, i32*, [13 x i8*] }
%struct.__locale_data = type opaque
%"class.std::num_put" = type { %"class.std::locale::facet.base", [4 x i8] }
%"class.std::num_get" = type { %"class.std::locale::facet.base", [4 x i8] }

@_ZStL8__ioinit = internal global %"class.std::ios_base::Init" zeroinitializer, align 1
@__dso_handle = external hidden global i8
@_ZSt3cin = external global %"class.std::basic_istream", align 8
@_ZSt4cout = external global %"class.std::basic_ostream", align 8
@.str = private unnamed_addr constant [2 x i8] c" \00", align 1
@llvm.global_ctors = appending global [1 x { i32, void ()*, i8* }] [{ i32, void ()*, i8* } { i32 65535, void ()* @_GLOBAL__sub_I_4906.cpp, i8* null }]

declare void @_ZNSt8ios_base4InitC1Ev(%"class.std::ios_base::Init"* nonnull align 1 dereferenceable(1)) unnamed_addr #0

; Function Attrs: nounwind
declare void @_ZNSt8ios_base4InitD1Ev(%"class.std::ios_base::Init"* nonnull align 1 dereferenceable(1)) unnamed_addr #1

; Function Attrs: nofree nounwind
declare i32 @__cxa_atexit(void (i8*)*, i8*, i8*) local_unnamed_addr #2

; Function Attrs: mustprogress norecurse sspstrong uwtable
define dso_local i32 @main() local_unnamed_addr #3 {
  %1 = alloca i32, align 4
  %2 = alloca i32, align 4
  %3 = bitcast i32* %1 to i8*
  call void @llvm.lifetime.start.p0i8(i64 4, i8* nonnull %3) #7
  %4 = bitcast i32* %2 to i8*
  call void @llvm.lifetime.start.p0i8(i64 4, i8* nonnull %4) #7
  %5 = call nonnull align 8 dereferenceable(16) %"class.std::basic_istream"* @_ZNSirsERi(%"class.std::basic_istream"* nonnull align 8 dereferenceable(16) @_ZSt3cin, i32* nonnull align 4 dereferenceable(4) %1)
  %6 = call nonnull align 8 dereferenceable(16) %"class.std::basic_istream"* @_ZNSirsERi(%"class.std::basic_istream"* nonnull align 8 dereferenceable(16) %5, i32* nonnull align 4 dereferenceable(4) %2)
  %7 = load i32, i32* %1, align 4, !tbaa !5
  %8 = zext i32 %7 to i64
  %9 = call i8* @llvm.stacksave()
  %10 = alloca i32, i64 %8, align 16
  %11 = load i32, i32* %1, align 4, !tbaa !5
  %12 = icmp sgt i32 %11, 0
  br i1 %12, label %25, label %13

13:                                               ; preds = %25, %0
  %14 = phi i32 [ %11, %0 ], [ %30, %25 ]
  %15 = load i32, i32* %2, align 4, !tbaa !5
  %16 = sub i32 %15, %14
  %17 = icmp sgt i32 %15, 0
  br i1 %17, label %18, label %33

18:                                               ; preds = %13
  %19 = sub i32 %14, %15
  %20 = sext i32 %19 to i64
  %21 = sext i32 %14 to i64
  %22 = add nsw i64 %20, -1
  %23 = and i64 %20, 3
  %24 = icmp eq i64 %23, 0
  br label %38

25:                                               ; preds = %0, %25
  %26 = phi i64 [ %29, %25 ], [ 0, %0 ]
  %27 = getelementptr inbounds i32, i32* %10, i64 %26
  %28 = call nonnull align 8 dereferenceable(16) %"class.std::basic_istream"* @_ZNSirsERi(%"class.std::basic_istream"* nonnull align 8 dereferenceable(16) @_ZSt3cin, i32* nonnull align 4 dereferenceable(4) %27)
  %29 = add nuw nsw i64 %26, 1
  %30 = load i32, i32* %1, align 4, !tbaa !5
  %31 = sext i32 %30 to i64
  %32 = icmp slt i64 %29, %31
  br i1 %32, label %25, label %13, !llvm.loop !9

33:                                               ; preds = %64, %13
  %34 = icmp sgt i32 %14, 1
  br i1 %34, label %93, label %35

35:                                               ; preds = %33
  %36 = add nsw i32 %14, -1
  %37 = sext i32 %36 to i64
  br label %88

38:                                               ; preds = %18, %64
  %39 = phi i64 [ 0, %18 ], [ %68, %64 ]
  %40 = phi i64 [ %20, %18 ], [ %66, %64 ]
  %41 = shl i64 %39, 32
  %42 = ashr exact i64 %41, 32
  %43 = add i64 %22, %39
  %44 = sub i64 %43, %42
  %45 = getelementptr inbounds i32, i32* %10, i64 %40
  %46 = load i32, i32* %45, align 4, !tbaa !5
  %47 = trunc i64 %40 to i32
  %48 = add i32 %16, %47
  %49 = sext i32 %48 to i64
  %50 = icmp sgt i64 %40, %49
  br i1 %50, label %51, label %64

51:                                               ; preds = %38
  br i1 %24, label %61, label %52

52:                                               ; preds = %51, %52
  %53 = phi i64 [ %55, %52 ], [ %40, %51 ]
  %54 = phi i64 [ %59, %52 ], [ %23, %51 ]
  %55 = add nsw i64 %53, -1
  %56 = getelementptr inbounds i32, i32* %10, i64 %55
  %57 = load i32, i32* %56, align 4, !tbaa !5
  %58 = getelementptr inbounds i32, i32* %10, i64 %53
  store i32 %57, i32* %58, align 4, !tbaa !5
  %59 = add i64 %54, -1
  %60 = icmp eq i64 %59, 0
  br i1 %60, label %61, label %52, !llvm.loop !11

61:                                               ; preds = %52, %51
  %62 = phi i64 [ %40, %51 ], [ %55, %52 ]
  %63 = icmp ult i64 %44, 3
  br i1 %63, label %64, label %69

64:                                               ; preds = %61, %69, %38
  %65 = getelementptr inbounds i32, i32* %10, i64 %49
  store i32 %46, i32* %65, align 4, !tbaa !5
  %66 = add nsw i64 %40, 1
  %67 = icmp slt i64 %66, %21
  %68 = add i64 %39, 1
  br i1 %67, label %38, label %33, !llvm.loop !13

69:                                               ; preds = %61, %69
  %70 = phi i64 [ %83, %69 ], [ %62, %61 ]
  %71 = add nsw i64 %70, -1
  %72 = getelementptr inbounds i32, i32* %10, i64 %71
  %73 = load i32, i32* %72, align 4, !tbaa !5
  %74 = getelementptr inbounds i32, i32* %10, i64 %70
  store i32 %73, i32* %74, align 4, !tbaa !5
  %75 = add nsw i64 %70, -2
  %76 = getelementptr inbounds i32, i32* %10, i64 %75
  %77 = load i32, i32* %76, align 4, !tbaa !5
  %78 = getelementptr inbounds i32, i32* %10, i64 %71
  store i32 %77, i32* %78, align 4, !tbaa !5
  %79 = add nsw i64 %70, -3
  %80 = getelementptr inbounds i32, i32* %10, i64 %79
  %81 = load i32, i32* %80, align 4, !tbaa !5
  %82 = getelementptr inbounds i32, i32* %10, i64 %75
  store i32 %81, i32* %82, align 4, !tbaa !5
  %83 = add nsw i64 %70, -4
  %84 = getelementptr inbounds i32, i32* %10, i64 %83
  %85 = load i32, i32* %84, align 4, !tbaa !5
  %86 = getelementptr inbounds i32, i32* %10, i64 %79
  store i32 %85, i32* %86, align 4, !tbaa !5
  %87 = icmp sgt i64 %83, %49
  br i1 %87, label %69, label %64, !llvm.loop !14

88:                                               ; preds = %93, %35
  %89 = phi i64 [ %37, %35 ], [ %102, %93 ]
  %90 = getelementptr inbounds i32, i32* %10, i64 %89
  %91 = load i32, i32* %90, align 4, !tbaa !5
  %92 = call nonnull align 8 dereferenceable(8) %"class.std::basic_ostream"* @_ZNSolsEi(%"class.std::basic_ostream"* nonnull align 8 dereferenceable(8) @_ZSt4cout, i32 %91)
  call void @llvm.stackrestore(i8* %9)
  call void @llvm.lifetime.end.p0i8(i64 4, i8* nonnull %4) #7
  call void @llvm.lifetime.end.p0i8(i64 4, i8* nonnull %3) #7
  ret i32 0

93:                                               ; preds = %33, %93
  %94 = phi i64 [ %99, %93 ], [ 0, %33 ]
  %95 = getelementptr inbounds i32, i32* %10, i64 %94
  %96 = load i32, i32* %95, align 4, !tbaa !5
  %97 = call nonnull align 8 dereferenceable(8) %"class.std::basic_ostream"* @_ZNSolsEi(%"class.std::basic_ostream"* nonnull align 8 dereferenceable(8) @_ZSt4cout, i32 %96)
  %98 = call nonnull align 8 dereferenceable(8) %"class.std::basic_ostream"* @_ZSt16__ostream_insertIcSt11char_traitsIcEERSt13basic_ostreamIT_T0_ES6_PKS3_l(%"class.std::basic_ostream"* nonnull align 8 dereferenceable(8) %97, i8* nonnull getelementptr inbounds ([2 x i8], [2 x i8]* @.str, i64 0, i64 0), i64 1)
  %99 = add nuw nsw i64 %94, 1
  %100 = load i32, i32* %1, align 4, !tbaa !5
  %101 = add nsw i32 %100, -1
  %102 = sext i32 %101 to i64
  %103 = icmp slt i64 %99, %102
  br i1 %103, label %93, label %88, !llvm.loop !15
}

; Function Attrs: argmemonly mustprogress nofree nosync nounwind willreturn
declare void @llvm.lifetime.start.p0i8(i64 immarg, i8* nocapture) #4

declare nonnull align 8 dereferenceable(16) %"class.std::basic_istream"* @_ZNSirsERi(%"class.std::basic_istream"* nonnull align 8 dereferenceable(16), i32* nonnull align 4 dereferenceable(4)) local_unnamed_addr #0

; Function Attrs: mustprogress nofree nosync nounwind willreturn
declare i8* @llvm.stacksave() #5

; Function Attrs: argmemonly mustprogress nofree nosync nounwind willreturn
declare void @llvm.lifetime.end.p0i8(i64 immarg, i8* nocapture) #4

declare nonnull align 8 dereferenceable(8) %"class.std::basic_ostream"* @_ZNSolsEi(%"class.std::basic_ostream"* nonnull align 8 dereferenceable(8), i32) local_unnamed_addr #0

; Function Attrs: mustprogress nofree nosync nounwind willreturn
declare void @llvm.stackrestore(i8*) #5

declare nonnull align 8 dereferenceable(8) %"class.std::basic_ostream"* @_ZSt16__ostream_insertIcSt11char_traitsIcEERSt13basic_ostreamIT_T0_ES6_PKS3_l(%"class.std::basic_ostream"* nonnull align 8 dereferenceable(8), i8*, i64) local_unnamed_addr #0

; Function Attrs: sspstrong uwtable
define internal void @_GLOBAL__sub_I_4906.cpp() #6 section ".text.startup" {
  tail call void @_ZNSt8ios_base4InitC1Ev(%"class.std::ios_base::Init"* nonnull align 1 dereferenceable(1) @_ZStL8__ioinit)
  %1 = tail call i32 @__cxa_atexit(void (i8*)* bitcast (void (%"class.std::ios_base::Init"*)* @_ZNSt8ios_base4InitD1Ev to void (i8*)*), i8* getelementptr inbounds (%"class.std::ios_base::Init", %"class.std::ios_base::Init"* @_ZStL8__ioinit, i64 0, i32 0), i8* nonnull @__dso_handle) #7
  ret void
}


!llvm.module.flags = !{!0, !1, !2, !3}
!llvm.ident = !{!4}

!0 = !{i32 1, !"wchar_size", i32 4}
!1 = !{i32 7, !"PIC Level", i32 2}
!2 = !{i32 7, !"PIE Level", i32 2}
!3 = !{i32 7, !"uwtable", i32 1}
!4 = !{!"clang version 13.0.0"}
!5 = !{!6, !6, i64 0}
!6 = !{!"int", !7, i64 0}
!7 = !{!"omnipotent char", !8, i64 0}
!8 = !{!"Simple C++ TBAA"}
!9 = distinct !{!9, !10}
!10 = !{!"llvm.loop.mustprogress"}
!11 = distinct !{!11, !12}
!12 = !{!"llvm.loop.unroll.disable"}
!13 = distinct !{!13, !10}
!14 = distinct !{!14, !10}
!15 = distinct !{!15, !10}
